target datalayout = "e-m:e-p270:32:32-p271:32:32-p272:64:64-i64:64-i128:128-f80:128-n8:16:32:64-S128"
target triple = "x86_64-pc-linux-gnu"

%struct.re_registers = type { i32, i32, ptr, ptr, ptr }
%struct.OnigRegSetStruct = type { ptr, i32, i32, ptr, i32, i32, i32, i32, i32 }
%struct.RR = type { ptr, ptr }

; Function Attrs: nounwind uwtable
define internal void @history_root_free(ptr noundef %0) #0 {
  %2 = alloca ptr, align 8
  store ptr %0, ptr %2, align 8, !tbaa !21
  %3 = load ptr, ptr %2, align 8, !tbaa !21
  %4 = getelementptr inbounds nuw %struct.re_registers, ptr %3, i32 0, i32 4
  %5 = load ptr, ptr %4, align 8, !tbaa !23
  %6 = icmp eq ptr %5, null
  br i1 %6, label %7, label %8

7:                                                ; preds = %1
  br label %14

8:                                                ; preds = %1
  %9 = load ptr, ptr %2, align 8, !tbaa !21
  %10 = getelementptr inbounds nuw %struct.re_registers, ptr %9, i32 0, i32 4
  %11 = load ptr, ptr %10, align 8, !tbaa !23
  call void @history_tree_free(ptr noundef %11)
  %12 = load ptr, ptr %2, align 8, !tbaa !21
  %13 = getelementptr inbounds nuw %struct.re_registers, ptr %12, i32 0, i32 4
  store ptr null, ptr %13, align 8, !tbaa !23
  br label %14

14:                                               ; preds = %8, %7
  ret void
}

; Function Attrs: nounwind uwtable
define dso_local void @onig_region_free(ptr noundef %0, i32 noundef %1) #0 {
  %3 = alloca ptr, align 8
  %4 = alloca i32, align 4
  store ptr %0, ptr %3, align 8, !tbaa !21
  store i32 %1, ptr %4, align 4, !tbaa !9
  %5 = load ptr, ptr %3, align 8, !tbaa !21
  %6 = icmp ne ptr %5, null
  br i1 %6, label %7, label %40

7:                                                ; preds = %2
  %8 = load ptr, ptr %3, align 8, !tbaa !21
  %9 = getelementptr inbounds nuw %struct.re_registers, ptr %8, i32 0, i32 0
  %10 = load i32, ptr %9, align 8, !tbaa !32
  %11 = icmp sgt i32 %10, 0
  br i1 %11, label %12, label %33

12:                                               ; preds = %7
  %13 = load ptr, ptr %3, align 8, !tbaa !21
  %14 = getelementptr inbounds nuw %struct.re_registers, ptr %13, i32 0, i32 2
  %15 = load ptr, ptr %14, align 8, !tbaa !29
  %16 = icmp ne ptr %15, null
  br i1 %16, label %17, label %21

17:                                               ; preds = %12
  %18 = load ptr, ptr %3, align 8, !tbaa !21
  %19 = getelementptr inbounds nuw %struct.re_registers, ptr %18, i32 0, i32 2
  %20 = load ptr, ptr %19, align 8, !tbaa !29
  call void @free(ptr noundef %20) #9
  br label %21

21:                                               ; preds = %17, %12
  %22 = load ptr, ptr %3, align 8, !tbaa !21
  %23 = getelementptr inbounds nuw %struct.re_registers, ptr %22, i32 0, i32 3
  %24 = load ptr, ptr %23, align 8, !tbaa !28
  %25 = icmp ne ptr %24, null
  br i1 %25, label %26, label %30

26:                                               ; preds = %21
  %27 = load ptr, ptr %3, align 8, !tbaa !21
  %28 = getelementptr inbounds nuw %struct.re_registers, ptr %27, i32 0, i32 3
  %29 = load ptr, ptr %28, align 8, !tbaa !28
  call void @free(ptr noundef %29) #9
  br label %30

30:                                               ; preds = %26, %21
  %31 = load ptr, ptr %3, align 8, !tbaa !21
  %32 = getelementptr inbounds nuw %struct.re_registers, ptr %31, i32 0, i32 0
  store i32 0, ptr %32, align 8, !tbaa !32
  br label %33

33:                                               ; preds = %30, %7
  %34 = load ptr, ptr %3, align 8, !tbaa !21
  call void @history_root_free(ptr noundef %34)
  %35 = load i32, ptr %4, align 4, !tbaa !9
  %36 = icmp ne i32 %35, 0
  br i1 %36, label %37, label %39

37:                                               ; preds = %33
  %38 = load ptr, ptr %3, align 8, !tbaa !21
  call void @free(ptr noundef %38) #9
  br label %39

39:                                               ; preds = %37, %33
  br label %40

40:                                               ; preds = %39, %2
  ret void
}

; Function Attrs: nounwind uwtable
define dso_local void @onig_regset_free(ptr noundef %0) #0 {
  %2 = alloca ptr, align 8
  %3 = alloca i32, align 4
  %4 = alloca ptr, align 8
  %5 = alloca ptr, align 8
  store ptr %0, ptr %2, align 8, !tbaa !62
  call void @llvm.lifetime.start.p0(i64 4, ptr %3) #9
  store i32 0, ptr %3, align 4, !tbaa !9
  br label %6

6:                                                ; preds = %35, %1
  %7 = load i32, ptr %3, align 4, !tbaa !9
  %8 = load ptr, ptr %2, align 8, !tbaa !62
  %9 = getelementptr inbounds nuw %struct.OnigRegSetStruct, ptr %8, i32 0, i32 1
  %10 = load i32, ptr %9, align 8, !tbaa !67
  %11 = icmp slt i32 %7, %10
  br i1 %11, label %12, label %38

12:                                               ; preds = %6
  call void @llvm.lifetime.start.p0(i64 8, ptr %4) #9
  call void @llvm.lifetime.start.p0(i64 8, ptr %5) #9
  %13 = load ptr, ptr %2, align 8, !tbaa !62
  %14 = getelementptr inbounds nuw %struct.OnigRegSetStruct, ptr %13, i32 0, i32 0
  %15 = load ptr, ptr %14, align 8, !tbaa !72
  %16 = load i32, ptr %3, align 4, !tbaa !9
  %17 = sext i32 %16 to i64
  %18 = getelementptr inbounds %struct.RR, ptr %15, i64 %17
  %19 = getelementptr inbounds nuw %struct.RR, ptr %18, i32 0, i32 0
  %20 = load ptr, ptr %19, align 8, !tbaa !73
  store ptr %20, ptr %4, align 8, !tbaa !57
  %21 = load ptr, ptr %2, align 8, !tbaa !62
  %22 = getelementptr inbounds nuw %struct.OnigRegSetStruct, ptr %21, i32 0, i32 0
  %23 = load ptr, ptr %22, align 8, !tbaa !72
  %24 = load i32, ptr %3, align 4, !tbaa !9
  %25 = sext i32 %24 to i64
  %26 = getelementptr inbounds %struct.RR, ptr %23, i64 %25
  %27 = getelementptr inbounds nuw %struct.RR, ptr %26, i32 0, i32 1
  %28 = load ptr, ptr %27, align 8, !tbaa !75
  store ptr %28, ptr %5, align 8, !tbaa !21
  %29 = load ptr, ptr %4, align 8, !tbaa !57
  call void @onig_free(ptr noundef %29)
  %30 = load ptr, ptr %5, align 8, !tbaa !21
  %31 = icmp ne ptr %30, null
  br i1 %31, label %32, label %34

32:                                               ; preds = %12
  %33 = load ptr, ptr %5, align 8, !tbaa !21
  call void @onig_region_free(ptr noundef %33, i32 noundef 1)
  br label %34

34:                                               ; preds = %32, %12
  call void @llvm.lifetime.end.p0(i64 8, ptr %5) #9
  call void @llvm.lifetime.end.p0(i64 8, ptr %4) #9
  br label %35

35:                                               ; preds = %34
  %36 = load i32, ptr %3, align 4, !tbaa !9
  %37 = add nsw i32 %36, 1
  store i32 %37, ptr %3, align 4, !tbaa !9
  br label %6, !llvm.loop !213

38:                                               ; preds = %6
  %39 = load ptr, ptr %2, align 8, !tbaa !62
  %40 = getelementptr inbounds nuw %struct.OnigRegSetStruct, ptr %39, i32 0, i32 0
  %41 = load ptr, ptr %40, align 8, !tbaa !72
  call void @free(ptr noundef %41) #9
  %42 = load ptr, ptr %2, align 8, !tbaa !62
  call void @free(ptr noundef %42) #9
  call void @llvm.lifetime.end.p0(i64 4, ptr %3) #9
  ret void
}