; Function Attrs: nounwind uwtable
define dso_local void @onig_regset_free(ptr noundef captures(none) %0) local_unnamed_addr #4 {
  %2 = getelementptr inbounds nuw i8, ptr %0, i64 8
  %3 = load i32, ptr %2, align 8, !tbaa !57
  %4 = icmp sgt i32 %3, 0
  br i1 %4, label %.lr.ph, label %._crit_edge

.lr.ph:                                           ; preds = %1, %27
  %indvars.iv = phi i64 [ %indvars.iv.next, %27 ], [ 0, %1 ]
  %5 = load ptr, ptr %0, align 8, !tbaa !61
  %6 = getelementptr inbounds nuw %struct.RR, ptr %5, i64 %indvars.iv
  %7 = load ptr, ptr %6, align 8, !tbaa !62
  %8 = getelementptr inbounds nuw i8, ptr %6, i64 8
  %9 = load ptr, ptr %8, align 8, !tbaa !64
  tail call void @onig_free(ptr noundef %7) #30
  %.not = icmp eq ptr %9, null
  br i1 %.not, label %27, label %10

10:                                               ; preds = %.lr.ph
  %11 = load i32, ptr %9, align 8, !tbaa !27
  %12 = icmp sgt i32 %11, 0
  br i1 %12, label %13, label %22

13:                                               ; preds = %10
  %14 = getelementptr inbounds nuw i8, ptr %9, i64 8
  %15 = load ptr, ptr %14, align 8, !tbaa !23
  %.not11.i = icmp eq ptr %15, null
  br i1 %.not11.i, label %17, label %16

16:                                               ; preds = %13
  tail call void @free(ptr noundef nonnull %15) #30
  br label %17

17:                                               ; preds = %16, %13
  %18 = getelementptr inbounds nuw i8, ptr %9, i64 16
  %19 = load ptr, ptr %18, align 8, !tbaa !22
  %.not12.i = icmp eq ptr %19, null
  br i1 %.not12.i, label %21, label %20

20:                                               ; preds = %17
  tail call void @free(ptr noundef nonnull %19) #30
  br label %21

21:                                               ; preds = %20, %17
  store i32 0, ptr %9, align 8, !tbaa !27
  br label %22

22:                                               ; preds = %21, %10
  %23 = getelementptr inbounds nuw i8, ptr %9, i64 24
  %24 = load ptr, ptr %23, align 8, !tbaa !16
  %25 = icmp eq ptr %24, null
  br i1 %25, label %onig_region_free.exit, label %26

26:                                               ; preds = %22
  tail call fastcc void @history_tree_free(ptr noundef %24)
  br label %onig_region_free.exit

onig_region_free.exit:                            ; preds = %22, %26
  tail call void @free(ptr noundef nonnull %9) #30
  br label %27

27:                                               ; preds = %onig_region_free.exit, %.lr.ph
  %indvars.iv.next = add nuw nsw i64 %indvars.iv, 1
  %28 = load i32, ptr %2, align 8, !tbaa !57
  %29 = sext i32 %28 to i64
  %30 = icmp slt i64 %indvars.iv.next, %29
  br i1 %30, label %.lr.ph, label %._crit_edge, !llvm.loop !207

._crit_edge:                                      ; preds = %27, %1
  %31 = load ptr, ptr %0, align 8, !tbaa !61
  tail call void @free(ptr noundef %31) #30
  tail call void @free(ptr noundef nonnull %0) #30
  ret void
}